; Function Attrs: mustprogress nounwind uwtable
define void @uset_close_77(ptr noundef %0) local_unnamed_addr #3 {
  %2 = icmp eq ptr %0, null
  br i1 %2, label %4, label %3

3:                                                ; preds = %1
  tail call void @_ZN6icu_7710UnicodeSetD1Ev(ptr noundef nonnull align 8 dereferenceable(200) %0) #10
  tail call void @_ZN6icu_777UMemorydlEPv(ptr noundef nonnull %0) #10
  br label %4

4:                                                ; preds = %3, %1
  ret void
}